; Function Attrs: mustprogress nounwind uwtable
define void @_ZN6casadi12CvodesMemoryD2Ev(ptr noundef nonnull align 8 dereferenceable(568) %0) unnamed_addr #4 align 2 personality ptr @__gxx_personality_v0 {
  %2 = getelementptr inbounds i8, ptr %0, i64 520
  %3 = load i32, ptr %2, align 8
  %4 = icmp sgt i32 %3, -1
  br i1 %4, label %5, label %9

5:                                                ; preds = %1
  %6 = getelementptr inbounds i8, ptr %0, i64 528
  %7 = load ptr, ptr %6, align 8
  %8 = getelementptr inbounds i8, ptr %7, i64 2104
  invoke void @_ZNK6casadi6Linsol7releaseEi(ptr noundef nonnull align 8 dereferenceable(8) %8, i32 noundef %3)
          to label %9 unwind label %14

9:                                                ; preds = %5, %1
  %10 = getelementptr inbounds i8, ptr %0, i64 536
  %11 = load ptr, ptr %10, align 8
  %.not = icmp eq ptr %11, null
  br i1 %.not, label %13, label %12

12:                                               ; preds = %9
  invoke void @CVodeFree(ptr noundef nonnull %10)
          to label %13 unwind label %14

13:                                               ; preds = %12, %9
  tail call void @_ZN6casadi14SundialsMemoryD2Ev(ptr noundef nonnull align 8 dereferenceable(524) %0) #20
  ret void

14:                                               ; preds = %12, %5
  %15 = landingpad { ptr, i32 }
          catch ptr null
  %16 = extractvalue { ptr, i32 } %15, 0
  tail call void @__clang_call_terminate(ptr %16) #23
  unreachable
}